
Application.elf:     file format elf32-avr

Sections:
Idx Name          Size      VMA       LMA       File off  Algn
  0 .text         0000093a  00000000  00000000  00000094  2**1
                  CONTENTS, ALLOC, LOAD, READONLY, CODE
  1 .data         00000012  00800060  0000093a  000009ce  2**0
                  CONTENTS, ALLOC, LOAD, DATA
  2 .bss          00000012  00800072  00800072  000009e0  2**0
                  ALLOC
  3 .comment      00000030  00000000  00000000  000009e0  2**0
                  CONTENTS, READONLY
  4 .note.gnu.avr.deviceinfo 0000003c  00000000  00000000  00000a10  2**2
                  CONTENTS, READONLY
  5 .debug_aranges 000002b8  00000000  00000000  00000a4c  2**0
                  CONTENTS, READONLY, DEBUGGING
  6 .debug_info   00001bd9  00000000  00000000  00000d04  2**0
                  CONTENTS, READONLY, DEBUGGING
  7 .debug_abbrev 00000d8f  00000000  00000000  000028dd  2**0
                  CONTENTS, READONLY, DEBUGGING
  8 .debug_line   000012e1  00000000  00000000  0000366c  2**0
                  CONTENTS, READONLY, DEBUGGING
  9 .debug_frame  00000780  00000000  00000000  00004950  2**2
                  CONTENTS, READONLY, DEBUGGING
 10 .debug_str    000009e4  00000000  00000000  000050d0  2**0
                  CONTENTS, READONLY, DEBUGGING
 11 .debug_loc    00001558  00000000  00000000  00005ab4  2**0
                  CONTENTS, READONLY, DEBUGGING
 12 .debug_ranges 00000218  00000000  00000000  0000700c  2**0
                  CONTENTS, READONLY, DEBUGGING

Disassembly of section .text:

00000000 <__vectors>:
   0:	0c 94 2a 00 	jmp	0x54	; 0x54 <__ctors_end>
   4:	0c 94 20 03 	jmp	0x640	; 0x640 <__vector_1>
   8:	0c 94 47 03 	jmp	0x68e	; 0x68e <__vector_2>
   c:	0c 94 6e 03 	jmp	0x6dc	; 0x6dc <__vector_3>
  10:	0c 94 41 04 	jmp	0x882	; 0x882 <__vector_4>
  14:	0c 94 18 04 	jmp	0x830	; 0x830 <__vector_5>
  18:	0c 94 47 00 	jmp	0x8e	; 0x8e <__bad_interrupt>
  1c:	0c 94 47 00 	jmp	0x8e	; 0x8e <__bad_interrupt>
  20:	0c 94 47 00 	jmp	0x8e	; 0x8e <__bad_interrupt>
  24:	0c 94 47 00 	jmp	0x8e	; 0x8e <__bad_interrupt>
  28:	0c 94 be 03 	jmp	0x77c	; 0x77c <__vector_10>
  2c:	0c 94 95 03 	jmp	0x72a	; 0x72a <__vector_11>
  30:	0c 94 47 00 	jmp	0x8e	; 0x8e <__bad_interrupt>
  34:	0c 94 47 00 	jmp	0x8e	; 0x8e <__bad_interrupt>
  38:	0c 94 47 00 	jmp	0x8e	; 0x8e <__bad_interrupt>
  3c:	0c 94 47 00 	jmp	0x8e	; 0x8e <__bad_interrupt>
  40:	0c 94 f6 01 	jmp	0x3ec	; 0x3ec <__vector_16>
  44:	0c 94 47 00 	jmp	0x8e	; 0x8e <__bad_interrupt>
  48:	0c 94 47 00 	jmp	0x8e	; 0x8e <__bad_interrupt>
  4c:	0c 94 47 00 	jmp	0x8e	; 0x8e <__bad_interrupt>
  50:	0c 94 47 00 	jmp	0x8e	; 0x8e <__bad_interrupt>

00000054 <__ctors_end>:
  54:	11 24       	eor	r1, r1
  56:	1f be       	out	0x3f, r1	; 63
  58:	cf e5       	ldi	r28, 0x5F	; 95
  5a:	d8 e0       	ldi	r29, 0x08	; 8
  5c:	de bf       	out	0x3e, r29	; 62
  5e:	cd bf       	out	0x3d, r28	; 61

00000060 <__do_copy_data>:
  60:	10 e0       	ldi	r17, 0x00	; 0
  62:	a0 e6       	ldi	r26, 0x60	; 96
  64:	b0 e0       	ldi	r27, 0x00	; 0
  66:	ea e3       	ldi	r30, 0x3A	; 58
  68:	f9 e0       	ldi	r31, 0x09	; 9
  6a:	02 c0       	rjmp	.+4      	; 0x70 <__do_copy_data+0x10>
  6c:	05 90       	lpm	r0, Z+
  6e:	0d 92       	st	X+, r0
  70:	a2 37       	cpi	r26, 0x72	; 114
  72:	b1 07       	cpc	r27, r17
  74:	d9 f7       	brne	.-10     	; 0x6c <__do_copy_data+0xc>

00000076 <__do_clear_bss>:
  76:	20 e0       	ldi	r18, 0x00	; 0
  78:	a2 e7       	ldi	r26, 0x72	; 114
  7a:	b0 e0       	ldi	r27, 0x00	; 0
  7c:	01 c0       	rjmp	.+2      	; 0x80 <.do_clear_bss_start>

0000007e <.do_clear_bss_loop>:
  7e:	1d 92       	st	X+, r1

00000080 <.do_clear_bss_start>:
  80:	a4 38       	cpi	r26, 0x84	; 132
  82:	b2 07       	cpc	r27, r18
  84:	e1 f7       	brne	.-8      	; 0x7e <.do_clear_bss_loop>
  86:	0e 94 49 00 	call	0x92	; 0x92 <main>
  8a:	0c 94 9b 04 	jmp	0x936	; 0x936 <_exit>

0000008e <__bad_interrupt>:
  8e:	0c 94 00 00 	jmp	0	; 0x0 <__vectors>

00000092 <main>:



int main(void) {
	
	DIO_voidSetPortDir(LCD_DPORT,0XF0);
  92:	60 ef       	ldi	r22, 0xF0	; 240
  94:	80 e0       	ldi	r24, 0x00	; 0
  96:	0e 94 10 03 	call	0x620	; 0x620 <DIO_voidSetPortDir>
	DIO_voidSetPortDir(LCD_CPORT,0X0E);
  9a:	6e e0       	ldi	r22, 0x0E	; 14
  9c:	81 e0       	ldi	r24, 0x01	; 1
  9e:	0e 94 10 03 	call	0x620	; 0x620 <DIO_voidSetPortDir>
	LCD_voidInit();
  a2:	0e 94 c8 00 	call	0x190	; 0x190 <LCD_voidInit>
	
	
	
	while(1) {
	
		u16 dist = ULTRASONIC_u16GetDistance();
  a6:	0e 94 a5 01 	call	0x34a	; 0x34a <ULTRASONIC_u16GetDistance>
  aa:	ec 01       	movw	r28, r24
		
		LCD_voidGoto(0,0);
  ac:	60 e0       	ldi	r22, 0x00	; 0
  ae:	80 e0       	ldi	r24, 0x00	; 0
  b0:	0e 94 74 01 	call	0x2e8	; 0x2e8 <LCD_voidGoto>
		LCD_voidSendNum(dist);
  b4:	ce 01       	movw	r24, r28
  b6:	0e 94 14 01 	call	0x228	; 0x228 <LCD_voidSendNum>
		
		if (dist < 10)
  ba:	2a 97       	sbiw	r28, 0x0a	; 10
  bc:	38 f4       	brcc	.+14     	; 0xcc <main+0x3a>
		{
		LCD_voidClearScreen();
  be:	0e 94 83 01 	call	0x306	; 0x306 <LCD_voidClearScreen>
		
			LED_voidOn(DIO_PORTC,DIO_PIN2);
  c2:	62 e0       	ldi	r22, 0x02	; 2
  c4:	82 e0       	ldi	r24, 0x02	; 2
  c6:	0e 94 87 01 	call	0x30e	; 0x30e <LED_voidOn>
  ca:	ed cf       	rjmp	.-38     	; 0xa6 <main+0x14>
		}else{
			LED_voidOff(DIO_PORTC,DIO_PIN2);
  cc:	62 e0       	ldi	r22, 0x02	; 2
  ce:	82 e0       	ldi	r24, 0x02	; 2
  d0:	0e 94 96 01 	call	0x32c	; 0x32c <LED_voidOff>
  d4:	e8 cf       	rjmp	.-48     	; 0xa6 <main+0x14>

000000d6 <LCD_voidSendHalfData>:
  d6:	0f 93       	push	r16
  d8:	1f 93       	push	r17
  da:	cf 93       	push	r28
  dc:	df 93       	push	r29
  de:	00 d0       	rcall	.+0      	; 0xe0 <LCD_voidSendHalfData+0xa>
  e0:	00 d0       	rcall	.+0      	; 0xe2 <LCD_voidSendHalfData+0xc>
  e2:	cd b7       	in	r28, 0x3d	; 61
  e4:	de b7       	in	r29, 0x3e	; 62
  e6:	08 2f       	mov	r16, r24
  e8:	84 e0       	ldi	r24, 0x04	; 4
  ea:	89 83       	std	Y+1, r24	; 0x01
  ec:	85 e0       	ldi	r24, 0x05	; 5
  ee:	8a 83       	std	Y+2, r24	; 0x02
  f0:	86 e0       	ldi	r24, 0x06	; 6
  f2:	8b 83       	std	Y+3, r24	; 0x03
  f4:	87 e0       	ldi	r24, 0x07	; 7
  f6:	8c 83       	std	Y+4, r24	; 0x04
  f8:	10 e0       	ldi	r17, 0x00	; 0
  fa:	14 c0       	rjmp	.+40     	; 0x124 <LCD_voidSendHalfData+0x4e>
  fc:	40 2f       	mov	r20, r16
  fe:	50 e0       	ldi	r21, 0x00	; 0
 100:	01 2e       	mov	r0, r17
 102:	02 c0       	rjmp	.+4      	; 0x108 <LCD_voidSendHalfData+0x32>
 104:	55 95       	asr	r21
 106:	47 95       	ror	r20
 108:	0a 94       	dec	r0
 10a:	e2 f7       	brpl	.-8      	; 0x104 <LCD_voidSendHalfData+0x2e>
 10c:	41 70       	andi	r20, 0x01	; 1
 10e:	e1 e0       	ldi	r30, 0x01	; 1
 110:	f0 e0       	ldi	r31, 0x00	; 0
 112:	ec 0f       	add	r30, r28
 114:	fd 1f       	adc	r31, r29
 116:	e1 0f       	add	r30, r17
 118:	f1 1d       	adc	r31, r1
 11a:	60 81       	ld	r22, Z
 11c:	80 e0       	ldi	r24, 0x00	; 0
 11e:	0e 94 9d 02 	call	0x53a	; 0x53a <DIO_voidSetPinVal>
 122:	1f 5f       	subi	r17, 0xFF	; 255
 124:	14 30       	cpi	r17, 0x04	; 4
 126:	50 f3       	brcs	.-44     	; 0xfc <LCD_voidSendHalfData+0x26>
 128:	0f 90       	pop	r0
 12a:	0f 90       	pop	r0
 12c:	0f 90       	pop	r0
 12e:	0f 90       	pop	r0
 130:	df 91       	pop	r29
 132:	cf 91       	pop	r28
 134:	1f 91       	pop	r17
 136:	0f 91       	pop	r16
 138:	08 95       	ret

0000013a <LCD_voidSendEnablePulse>:
 13a:	41 e0       	ldi	r20, 0x01	; 1
 13c:	63 e0       	ldi	r22, 0x03	; 3
 13e:	81 e0       	ldi	r24, 0x01	; 1
 140:	0e 94 9d 02 	call	0x53a	; 0x53a <DIO_voidSetPinVal>
 144:	8f e3       	ldi	r24, 0x3F	; 63
 146:	9f e1       	ldi	r25, 0x1F	; 31
 148:	01 97       	sbiw	r24, 0x01	; 1
 14a:	f1 f7       	brne	.-4      	; 0x148 <LCD_voidSendEnablePulse+0xe>
 14c:	00 c0       	rjmp	.+0      	; 0x14e <LCD_voidSendEnablePulse+0x14>
 14e:	00 00       	nop
 150:	40 e0       	ldi	r20, 0x00	; 0
 152:	63 e0       	ldi	r22, 0x03	; 3
 154:	81 e0       	ldi	r24, 0x01	; 1
 156:	0e 94 9d 02 	call	0x53a	; 0x53a <DIO_voidSetPinVal>
 15a:	08 95       	ret

0000015c <LCD_voidSendCommand>:
 15c:	cf 93       	push	r28
 15e:	c8 2f       	mov	r28, r24
 160:	40 e0       	ldi	r20, 0x00	; 0
 162:	61 e0       	ldi	r22, 0x01	; 1
 164:	81 e0       	ldi	r24, 0x01	; 1
 166:	0e 94 9d 02 	call	0x53a	; 0x53a <DIO_voidSetPinVal>
 16a:	40 e0       	ldi	r20, 0x00	; 0
 16c:	62 e0       	ldi	r22, 0x02	; 2
 16e:	81 e0       	ldi	r24, 0x01	; 1
 170:	0e 94 9d 02 	call	0x53a	; 0x53a <DIO_voidSetPinVal>
 174:	8c 2f       	mov	r24, r28
 176:	82 95       	swap	r24
 178:	8f 70       	andi	r24, 0x0F	; 15
 17a:	0e 94 6b 00 	call	0xd6	; 0xd6 <LCD_voidSendHalfData>
 17e:	0e 94 9d 00 	call	0x13a	; 0x13a <LCD_voidSendEnablePulse>
 182:	8c 2f       	mov	r24, r28
 184:	0e 94 6b 00 	call	0xd6	; 0xd6 <LCD_voidSendHalfData>
 188:	0e 94 9d 00 	call	0x13a	; 0x13a <LCD_voidSendEnablePulse>
 18c:	cf 91       	pop	r28
 18e:	08 95       	ret

00000190 <LCD_voidInit>:
 190:	2f ef       	ldi	r18, 0xFF	; 255
 192:	83 ef       	ldi	r24, 0xF3	; 243
 194:	91 e0       	ldi	r25, 0x01	; 1
 196:	21 50       	subi	r18, 0x01	; 1
 198:	80 40       	sbci	r24, 0x00	; 0
 19a:	90 40       	sbci	r25, 0x00	; 0
 19c:	e1 f7       	brne	.-8      	; 0x196 <LCD_voidInit+0x6>
 19e:	00 c0       	rjmp	.+0      	; 0x1a0 <LCD_voidInit+0x10>
 1a0:	00 00       	nop
 1a2:	82 e0       	ldi	r24, 0x02	; 2
 1a4:	0e 94 6b 00 	call	0xd6	; 0xd6 <LCD_voidSendHalfData>
 1a8:	0e 94 9d 00 	call	0x13a	; 0x13a <LCD_voidSendEnablePulse>
 1ac:	82 e0       	ldi	r24, 0x02	; 2
 1ae:	0e 94 6b 00 	call	0xd6	; 0xd6 <LCD_voidSendHalfData>
 1b2:	0e 94 9d 00 	call	0x13a	; 0x13a <LCD_voidSendEnablePulse>
 1b6:	88 e0       	ldi	r24, 0x08	; 8
 1b8:	0e 94 6b 00 	call	0xd6	; 0xd6 <LCD_voidSendHalfData>
 1bc:	0e 94 9d 00 	call	0x13a	; 0x13a <LCD_voidSendEnablePulse>
 1c0:	8c e0       	ldi	r24, 0x0C	; 12
 1c2:	0e 94 ae 00 	call	0x15c	; 0x15c <LCD_voidSendCommand>
 1c6:	81 e0       	ldi	r24, 0x01	; 1
 1c8:	0e 94 ae 00 	call	0x15c	; 0x15c <LCD_voidSendCommand>
 1cc:	08 95       	ret

000001ce <LCD_voidSendData>:
 1ce:	cf 93       	push	r28
 1d0:	c8 2f       	mov	r28, r24
 1d2:	41 e0       	ldi	r20, 0x01	; 1
 1d4:	61 e0       	ldi	r22, 0x01	; 1
 1d6:	81 e0       	ldi	r24, 0x01	; 1
 1d8:	0e 94 9d 02 	call	0x53a	; 0x53a <DIO_voidSetPinVal>
 1dc:	40 e0       	ldi	r20, 0x00	; 0
 1de:	62 e0       	ldi	r22, 0x02	; 2
 1e0:	81 e0       	ldi	r24, 0x01	; 1
 1e2:	0e 94 9d 02 	call	0x53a	; 0x53a <DIO_voidSetPinVal>
 1e6:	8c 2f       	mov	r24, r28
 1e8:	82 95       	swap	r24
 1ea:	8f 70       	andi	r24, 0x0F	; 15
 1ec:	0e 94 6b 00 	call	0xd6	; 0xd6 <LCD_voidSendHalfData>
 1f0:	0e 94 9d 00 	call	0x13a	; 0x13a <LCD_voidSendEnablePulse>
 1f4:	8c 2f       	mov	r24, r28
 1f6:	0e 94 6b 00 	call	0xd6	; 0xd6 <LCD_voidSendHalfData>
 1fa:	0e 94 9d 00 	call	0x13a	; 0x13a <LCD_voidSendEnablePulse>
 1fe:	cf 91       	pop	r28
 200:	08 95       	ret

00000202 <LCD_voidSendString>:
 202:	0f 93       	push	r16
 204:	1f 93       	push	r17
 206:	cf 93       	push	r28
 208:	8c 01       	movw	r16, r24
 20a:	c0 e0       	ldi	r28, 0x00	; 0
 20c:	03 c0       	rjmp	.+6      	; 0x214 <LCD_voidSendString+0x12>
 20e:	0e 94 e7 00 	call	0x1ce	; 0x1ce <LCD_voidSendData>
 212:	cf 5f       	subi	r28, 0xFF	; 255
 214:	f8 01       	movw	r30, r16
 216:	ec 0f       	add	r30, r28
 218:	f1 1d       	adc	r31, r1
 21a:	80 81       	ld	r24, Z
 21c:	81 11       	cpse	r24, r1
 21e:	f7 cf       	rjmp	.-18     	; 0x20e <LCD_voidSendString+0xc>
 220:	cf 91       	pop	r28
 222:	1f 91       	pop	r17
 224:	0f 91       	pop	r16
 226:	08 95       	ret

00000228 <LCD_voidSendNum>:
 228:	0f 93       	push	r16
 22a:	1f 93       	push	r17
 22c:	cf 93       	push	r28
 22e:	df 93       	push	r29
 230:	cd b7       	in	r28, 0x3d	; 61
 232:	de b7       	in	r29, 0x3e	; 62
 234:	60 97       	sbiw	r28, 0x10	; 16
 236:	0f b6       	in	r0, 0x3f	; 63
 238:	f8 94       	cli
 23a:	de bf       	out	0x3e, r29	; 62
 23c:	0f be       	out	0x3f, r0	; 63
 23e:	cd bf       	out	0x3d, r28	; 61
 240:	ac 01       	movw	r20, r24
 242:	89 2b       	or	r24, r25
 244:	81 f5       	brne	.+96     	; 0x2a6 <LCD_voidSendNum+0x7e>
 246:	80 e3       	ldi	r24, 0x30	; 48
 248:	0e 94 e7 00 	call	0x1ce	; 0x1ce <LCD_voidSendData>
 24c:	42 c0       	rjmp	.+132    	; 0x2d2 <LCD_voidSendNum+0xaa>
 24e:	9a 01       	movw	r18, r20
 250:	ad ec       	ldi	r26, 0xCD	; 205
 252:	bc ec       	ldi	r27, 0xCC	; 204
 254:	0e 94 8c 04 	call	0x918	; 0x918 <__umulhisi3>
 258:	96 95       	lsr	r25
 25a:	87 95       	ror	r24
 25c:	96 95       	lsr	r25
 25e:	87 95       	ror	r24
 260:	96 95       	lsr	r25
 262:	87 95       	ror	r24
 264:	9c 01       	movw	r18, r24
 266:	22 0f       	add	r18, r18
 268:	33 1f       	adc	r19, r19
 26a:	88 0f       	add	r24, r24
 26c:	99 1f       	adc	r25, r25
 26e:	88 0f       	add	r24, r24
 270:	99 1f       	adc	r25, r25
 272:	88 0f       	add	r24, r24
 274:	99 1f       	adc	r25, r25
 276:	82 0f       	add	r24, r18
 278:	93 1f       	adc	r25, r19
 27a:	9a 01       	movw	r18, r20
 27c:	28 1b       	sub	r18, r24
 27e:	39 0b       	sbc	r19, r25
 280:	e1 e0       	ldi	r30, 0x01	; 1
 282:	f0 e0       	ldi	r31, 0x00	; 0
 284:	ec 0f       	add	r30, r28
 286:	fd 1f       	adc	r31, r29
 288:	e0 0f       	add	r30, r16
 28a:	f1 1d       	adc	r31, r1
 28c:	20 83       	st	Z, r18
 28e:	9a 01       	movw	r18, r20
 290:	0e 94 8c 04 	call	0x918	; 0x918 <__umulhisi3>
 294:	ac 01       	movw	r20, r24
 296:	56 95       	lsr	r21
 298:	47 95       	ror	r20
 29a:	56 95       	lsr	r21
 29c:	47 95       	ror	r20
 29e:	56 95       	lsr	r21
 2a0:	47 95       	ror	r20
 2a2:	0f 5f       	subi	r16, 0xFF	; 255
 2a4:	01 c0       	rjmp	.+2      	; 0x2a8 <LCD_voidSendNum+0x80>
 2a6:	00 e0       	ldi	r16, 0x00	; 0
 2a8:	41 15       	cp	r20, r1
 2aa:	51 05       	cpc	r21, r1
 2ac:	81 f6       	brne	.-96     	; 0x24e <LCD_voidSendNum+0x26>
 2ae:	10 e0       	ldi	r17, 0x00	; 0
 2b0:	01 50       	subi	r16, 0x01	; 1
 2b2:	11 09       	sbc	r17, r1
 2b4:	0c c0       	rjmp	.+24     	; 0x2ce <LCD_voidSendNum+0xa6>
 2b6:	e1 e0       	ldi	r30, 0x01	; 1
 2b8:	f0 e0       	ldi	r31, 0x00	; 0
 2ba:	ec 0f       	add	r30, r28
 2bc:	fd 1f       	adc	r31, r29
 2be:	e0 0f       	add	r30, r16
 2c0:	f1 1f       	adc	r31, r17
 2c2:	80 81       	ld	r24, Z
 2c4:	80 5d       	subi	r24, 0xD0	; 208
 2c6:	0e 94 e7 00 	call	0x1ce	; 0x1ce <LCD_voidSendData>
 2ca:	01 50       	subi	r16, 0x01	; 1
 2cc:	11 09       	sbc	r17, r1
 2ce:	11 23       	and	r17, r17
 2d0:	94 f7       	brge	.-28     	; 0x2b6 <LCD_voidSendNum+0x8e>
 2d2:	60 96       	adiw	r28, 0x10	; 16
 2d4:	0f b6       	in	r0, 0x3f	; 63
 2d6:	f8 94       	cli
 2d8:	de bf       	out	0x3e, r29	; 62
 2da:	0f be       	out	0x3f, r0	; 63
 2dc:	cd bf       	out	0x3d, r28	; 61
 2de:	df 91       	pop	r29
 2e0:	cf 91       	pop	r28
 2e2:	1f 91       	pop	r17
 2e4:	0f 91       	pop	r16
 2e6:	08 95       	ret

000002e8 <LCD_voidGoto>:
 2e8:	62 30       	cpi	r22, 0x02	; 2
 2ea:	40 f4       	brcc	.+16     	; 0x2fc <LCD_voidGoto+0x14>
 2ec:	90 e4       	ldi	r25, 0x40	; 64
 2ee:	69 9f       	mul	r22, r25
 2f0:	80 0d       	add	r24, r0
 2f2:	11 24       	eor	r1, r1
 2f4:	80 68       	ori	r24, 0x80	; 128
 2f6:	0e 94 ae 00 	call	0x15c	; 0x15c <LCD_voidSendCommand>
 2fa:	08 95       	ret
 2fc:	80 e6       	ldi	r24, 0x60	; 96
 2fe:	90 e0       	ldi	r25, 0x00	; 0
 300:	0e 94 01 01 	call	0x202	; 0x202 <LCD_voidSendString>
 304:	08 95       	ret

00000306 <LCD_voidClearScreen>:
 306:	81 e0       	ldi	r24, 0x01	; 1
 308:	0e 94 ae 00 	call	0x15c	; 0x15c <LCD_voidSendCommand>
 30c:	08 95       	ret

0000030e <LED_voidOn>:
 30e:	cf 93       	push	r28
 310:	df 93       	push	r29
 312:	c8 2f       	mov	r28, r24
 314:	d6 2f       	mov	r29, r22
 316:	41 e0       	ldi	r20, 0x01	; 1
 318:	0e 94 2a 02 	call	0x454	; 0x454 <DIO_voidSetPinDir>
 31c:	41 e0       	ldi	r20, 0x01	; 1
 31e:	6d 2f       	mov	r22, r29
 320:	8c 2f       	mov	r24, r28
 322:	0e 94 9d 02 	call	0x53a	; 0x53a <DIO_voidSetPinVal>
 326:	df 91       	pop	r29
 328:	cf 91       	pop	r28
 32a:	08 95       	ret

0000032c <LED_voidOff>:
 32c:	cf 93       	push	r28
 32e:	df 93       	push	r29
 330:	c8 2f       	mov	r28, r24
 332:	d6 2f       	mov	r29, r22
 334:	41 e0       	ldi	r20, 0x01	; 1
 336:	0e 94 2a 02 	call	0x454	; 0x454 <DIO_voidSetPinDir>
 33a:	40 e0       	ldi	r20, 0x00	; 0
 33c:	6d 2f       	mov	r22, r29
 33e:	8c 2f       	mov	r24, r28
 340:	0e 94 9d 02 	call	0x53a	; 0x53a <DIO_voidSetPinVal>
 344:	df 91       	pop	r29
 346:	cf 91       	pop	r28
 348:	08 95       	ret

0000034a <ULTRASONIC_u16GetDistance>:
 *  Author: youss
 */ 

#include "ULTRASONIC_interface.h"

u16 ULTRASONIC_u16GetDistance(void){
 34a:	cf 93       	push	r28
 34c:	df 93       	push	r29
 34e:	00 d0       	rcall	.+0      	; 0x350 <ULTRASONIC_u16GetDistance+0x6>
 350:	00 d0       	rcall	.+0      	; 0x352 <ULTRASONIC_u16GetDistance+0x8>
 352:	cd b7       	in	r28, 0x3d	; 61
 354:	de b7       	in	r29, 0x3e	; 62
	

	
	/* Clear ICF (Input Capture flag)  */
	SET_BIT(TIFR_REG,ICR1L_REG);
 356:	26 b5       	in	r18, 0x26	; 38
 358:	37 b5       	in	r19, 0x27	; 39
 35a:	81 e0       	ldi	r24, 0x01	; 1
 35c:	90 e0       	ldi	r25, 0x00	; 0
 35e:	02 c0       	rjmp	.+4      	; 0x364 <ULTRASONIC_u16GetDistance+0x1a>
 360:	88 0f       	add	r24, r24
 362:	99 1f       	adc	r25, r25
 364:	2a 95       	dec	r18
 366:	e2 f7       	brpl	.-8      	; 0x360 <ULTRASONIC_u16GetDistance+0x16>
 368:	98 b7       	in	r25, 0x38	; 56
 36a:	89 2b       	or	r24, r25
 36c:	88 bf       	out	0x38, r24	; 56
	
	// Configure TRIG as output and ECHO as input
	DIO_voidSetPinDir(US_PORT, TRIG, OUTPUT);
 36e:	41 e0       	ldi	r20, 0x01	; 1
 370:	67 e0       	ldi	r22, 0x07	; 7
 372:	83 e0       	ldi	r24, 0x03	; 3
 374:	0e 94 2a 02 	call	0x454	; 0x454 <DIO_voidSetPinDir>
	DIO_voidSetPinDir(US_PORT, ECHO, INPUT);
 378:	40 e0       	ldi	r20, 0x00	; 0
 37a:	66 e0       	ldi	r22, 0x06	; 6
 37c:	83 e0       	ldi	r24, 0x03	; 3
 37e:	0e 94 2a 02 	call	0x454	; 0x454 <DIO_voidSetPinDir>


	// Send a 10us pulse to TRIG
	DIO_voidSetPinVal(US_PORT, TRIG, HIGH);
 382:	41 e0       	ldi	r20, 0x01	; 1
 384:	67 e0       	ldi	r22, 0x07	; 7
 386:	83 e0       	ldi	r24, 0x03	; 3
 388:	0e 94 9d 02 	call	0x53a	; 0x53a <DIO_voidSetPinVal>
	#else
		//round up by default
		__ticks_dc = (uint32_t)(ceil(fabs(__tmp)));
	#endif

	__builtin_avr_delay_cycles(__ticks_dc);
 38c:	85 e3       	ldi	r24, 0x35	; 53
 38e:	8a 95       	dec	r24
 390:	f1 f7       	brne	.-4      	; 0x38e <ULTRASONIC_u16GetDistance+0x44>
 392:	00 00       	nop
	_delay_us(10);
	DIO_voidSetPinVal(US_PORT, TRIG, LOW);
 394:	40 e0       	ldi	r20, 0x00	; 0
 396:	67 e0       	ldi	r22, 0x07	; 7
 398:	83 e0       	ldi	r24, 0x03	; 3
 39a:	0e 94 9d 02 	call	0x53a	; 0x53a <DIO_voidSetPinVal>


	// Start measuring echo pulse duration
	u16 t1 = 0,t2 = 0;
 39e:	1a 82       	std	Y+2, r1	; 0x02
 3a0:	19 82       	std	Y+1, r1	; 0x01
 3a2:	1c 82       	std	Y+4, r1	; 0x04
 3a4:	1b 82       	std	Y+3, r1	; 0x03
	TIM1_voidICUDutyCycle(&t1,&t2);
 3a6:	be 01       	movw	r22, r28
 3a8:	6d 5f       	subi	r22, 0xFD	; 253
 3aa:	7f 4f       	sbci	r23, 0xFF	; 255
 3ac:	ce 01       	movw	r24, r28
 3ae:	01 96       	adiw	r24, 0x01	; 1
 3b0:	0e 94 f4 03 	call	0x7e8	; 0x7e8 <TIM1_voidICUDutyCycle>
	
	// Stop Timer
	TIM1_voidReset();
 3b4:	0e 94 f1 03 	call	0x7e2	; 0x7e2 <TIM1_voidReset>
	TIM1_voidStop(); 
 3b8:	0e 94 e7 03 	call	0x7ce	; 0x7ce <TIM1_voidStop>
	
	u16 Ton = t2 - t1;
 3bc:	2b 81       	ldd	r18, Y+3	; 0x03
 3be:	3c 81       	ldd	r19, Y+4	; 0x04
 3c0:	89 81       	ldd	r24, Y+1	; 0x01
 3c2:	9a 81       	ldd	r25, Y+2	; 0x02
 3c4:	28 1b       	sub	r18, r24
 3c6:	39 0b       	sbc	r19, r25

	// Calculate distance in centimeters using integer arithmetic
	u16 distance = ((Ton * 34600) / (F_CPU * 2)); // 25°C
 3c8:	a8 e2       	ldi	r26, 0x28	; 40
 3ca:	b7 e8       	ldi	r27, 0x87	; 135
 3cc:	0e 94 8c 04 	call	0x918	; 0x918 <__umulhisi3>
 3d0:	20 e0       	ldi	r18, 0x00	; 0
 3d2:	38 e4       	ldi	r19, 0x48	; 72
 3d4:	48 ee       	ldi	r20, 0xE8	; 232
 3d6:	51 e0       	ldi	r21, 0x01	; 1
 3d8:	0e 94 6a 04 	call	0x8d4	; 0x8d4 <__udivmodsi4>
	
	return distance;
	
	
 3dc:	c9 01       	movw	r24, r18
 3de:	0f 90       	pop	r0
 3e0:	0f 90       	pop	r0
 3e2:	0f 90       	pop	r0
 3e4:	0f 90       	pop	r0
 3e6:	df 91       	pop	r29
 3e8:	cf 91       	pop	r28
 3ea:	08 95       	ret

000003ec <__vector_16>:
 3ec:	1f 92       	push	r1
 3ee:	0f 92       	push	r0
 3f0:	0f b6       	in	r0, 0x3f	; 63
 3f2:	0f 92       	push	r0
 3f4:	11 24       	eor	r1, r1
 3f6:	2f 93       	push	r18
 3f8:	3f 93       	push	r19
 3fa:	4f 93       	push	r20
 3fc:	5f 93       	push	r21
 3fe:	6f 93       	push	r22
 400:	7f 93       	push	r23
 402:	8f 93       	push	r24
 404:	9f 93       	push	r25
 406:	af 93       	push	r26
 408:	bf 93       	push	r27
 40a:	ef 93       	push	r30
 40c:	ff 93       	push	r31
 40e:	e0 91 74 00 	lds	r30, 0x0074	; 0x800074 <ADC_INT_PTR>
 412:	f0 91 75 00 	lds	r31, 0x0075	; 0x800075 <ADC_INT_PTR+0x1>
 416:	30 97       	sbiw	r30, 0x00	; 0
 418:	61 f0       	breq	.+24     	; 0x432 <__EEPROM_REGION_LENGTH__+0x32>
 41a:	a0 91 72 00 	lds	r26, 0x0072	; 0x800072 <__data_end>
 41e:	b0 91 73 00 	lds	r27, 0x0073	; 0x800073 <__data_end+0x1>
 422:	84 b1       	in	r24, 0x04	; 4
 424:	95 b1       	in	r25, 0x05	; 5
 426:	8d 93       	st	X+, r24
 428:	9c 93       	st	X, r25
 42a:	09 95       	icall
 42c:	86 b1       	in	r24, 0x06	; 6
 42e:	87 7f       	andi	r24, 0xF7	; 247
 430:	86 b9       	out	0x06, r24	; 6
 432:	ff 91       	pop	r31
 434:	ef 91       	pop	r30
 436:	bf 91       	pop	r27
 438:	af 91       	pop	r26
 43a:	9f 91       	pop	r25
 43c:	8f 91       	pop	r24
 43e:	7f 91       	pop	r23
 440:	6f 91       	pop	r22
 442:	5f 91       	pop	r21
 444:	4f 91       	pop	r20
 446:	3f 91       	pop	r19
 448:	2f 91       	pop	r18
 44a:	0f 90       	pop	r0
 44c:	0f be       	out	0x3f, r0	; 63
 44e:	0f 90       	pop	r0
 450:	1f 90       	pop	r1
 452:	18 95       	reti

00000454 <DIO_voidSetPinDir>:
 454:	42 30       	cpi	r20, 0x02	; 2
 456:	08 f0       	brcs	.+2      	; 0x45a <DIO_voidSetPinDir+0x6>
 458:	6f c0       	rjmp	.+222    	; 0x538 <DIO_voidSetPinDir+0xe4>
 45a:	41 30       	cpi	r20, 0x01	; 1
 45c:	a1 f5       	brne	.+104    	; 0x4c6 <DIO_voidSetPinDir+0x72>
 45e:	81 30       	cpi	r24, 0x01	; 1
 460:	89 f0       	breq	.+34     	; 0x484 <DIO_voidSetPinDir+0x30>
 462:	28 f0       	brcs	.+10     	; 0x46e <DIO_voidSetPinDir+0x1a>
 464:	82 30       	cpi	r24, 0x02	; 2
 466:	c9 f0       	breq	.+50     	; 0x49a <DIO_voidSetPinDir+0x46>
 468:	83 30       	cpi	r24, 0x03	; 3
 46a:	11 f1       	breq	.+68     	; 0x4b0 <DIO_voidSetPinDir+0x5c>
 46c:	08 95       	ret
 46e:	2a b3       	in	r18, 0x1a	; 26
 470:	81 e0       	ldi	r24, 0x01	; 1
 472:	90 e0       	ldi	r25, 0x00	; 0
 474:	02 c0       	rjmp	.+4      	; 0x47a <DIO_voidSetPinDir+0x26>
 476:	88 0f       	add	r24, r24
 478:	99 1f       	adc	r25, r25
 47a:	6a 95       	dec	r22
 47c:	e2 f7       	brpl	.-8      	; 0x476 <DIO_voidSetPinDir+0x22>
 47e:	82 2b       	or	r24, r18
 480:	8a bb       	out	0x1a, r24	; 26
 482:	08 95       	ret
 484:	27 b3       	in	r18, 0x17	; 23
 486:	81 e0       	ldi	r24, 0x01	; 1
 488:	90 e0       	ldi	r25, 0x00	; 0
 48a:	02 c0       	rjmp	.+4      	; 0x490 <DIO_voidSetPinDir+0x3c>
 48c:	88 0f       	add	r24, r24
 48e:	99 1f       	adc	r25, r25
 490:	6a 95       	dec	r22
 492:	e2 f7       	brpl	.-8      	; 0x48c <DIO_voidSetPinDir+0x38>
 494:	82 2b       	or	r24, r18
 496:	87 bb       	out	0x17, r24	; 23
 498:	08 95       	ret
 49a:	24 b3       	in	r18, 0x14	; 20
 49c:	81 e0       	ldi	r24, 0x01	; 1
 49e:	90 e0       	ldi	r25, 0x00	; 0
 4a0:	02 c0       	rjmp	.+4      	; 0x4a6 <DIO_voidSetPinDir+0x52>
 4a2:	88 0f       	add	r24, r24
 4a4:	99 1f       	adc	r25, r25
 4a6:	6a 95       	dec	r22
 4a8:	e2 f7       	brpl	.-8      	; 0x4a2 <DIO_voidSetPinDir+0x4e>
 4aa:	82 2b       	or	r24, r18
 4ac:	84 bb       	out	0x14, r24	; 20
 4ae:	08 95       	ret
 4b0:	21 b3       	in	r18, 0x11	; 17
 4b2:	81 e0       	ldi	r24, 0x01	; 1
 4b4:	90 e0       	ldi	r25, 0x00	; 0
 4b6:	02 c0       	rjmp	.+4      	; 0x4bc <DIO_voidSetPinDir+0x68>
 4b8:	88 0f       	add	r24, r24
 4ba:	99 1f       	adc	r25, r25
 4bc:	6a 95       	dec	r22
 4be:	e2 f7       	brpl	.-8      	; 0x4b8 <DIO_voidSetPinDir+0x64>
 4c0:	82 2b       	or	r24, r18
 4c2:	81 bb       	out	0x11, r24	; 17
 4c4:	08 95       	ret
 4c6:	41 11       	cpse	r20, r1
 4c8:	37 c0       	rjmp	.+110    	; 0x538 <DIO_voidSetPinDir+0xe4>
 4ca:	81 30       	cpi	r24, 0x01	; 1
 4cc:	91 f0       	breq	.+36     	; 0x4f2 <DIO_voidSetPinDir+0x9e>
 4ce:	28 f0       	brcs	.+10     	; 0x4da <DIO_voidSetPinDir+0x86>
 4d0:	82 30       	cpi	r24, 0x02	; 2
 4d2:	d9 f0       	breq	.+54     	; 0x50a <DIO_voidSetPinDir+0xb6>
 4d4:	83 30       	cpi	r24, 0x03	; 3
 4d6:	29 f1       	breq	.+74     	; 0x522 <DIO_voidSetPinDir+0xce>
 4d8:	08 95       	ret
 4da:	2a b3       	in	r18, 0x1a	; 26
 4dc:	81 e0       	ldi	r24, 0x01	; 1
 4de:	90 e0       	ldi	r25, 0x00	; 0
 4e0:	02 c0       	rjmp	.+4      	; 0x4e6 <DIO_voidSetPinDir+0x92>
 4e2:	88 0f       	add	r24, r24
 4e4:	99 1f       	adc	r25, r25
 4e6:	6a 95       	dec	r22
 4e8:	e2 f7       	brpl	.-8      	; 0x4e2 <DIO_voidSetPinDir+0x8e>
 4ea:	80 95       	com	r24
 4ec:	82 23       	and	r24, r18
 4ee:	8a bb       	out	0x1a, r24	; 26
 4f0:	08 95       	ret
 4f2:	27 b3       	in	r18, 0x17	; 23
 4f4:	81 e0       	ldi	r24, 0x01	; 1
 4f6:	90 e0       	ldi	r25, 0x00	; 0
 4f8:	02 c0       	rjmp	.+4      	; 0x4fe <DIO_voidSetPinDir+0xaa>
 4fa:	88 0f       	add	r24, r24
 4fc:	99 1f       	adc	r25, r25
 4fe:	6a 95       	dec	r22
 500:	e2 f7       	brpl	.-8      	; 0x4fa <DIO_voidSetPinDir+0xa6>
 502:	80 95       	com	r24
 504:	82 23       	and	r24, r18
 506:	87 bb       	out	0x17, r24	; 23
 508:	08 95       	ret
 50a:	24 b3       	in	r18, 0x14	; 20
 50c:	81 e0       	ldi	r24, 0x01	; 1
 50e:	90 e0       	ldi	r25, 0x00	; 0
 510:	02 c0       	rjmp	.+4      	; 0x516 <DIO_voidSetPinDir+0xc2>
 512:	88 0f       	add	r24, r24
 514:	99 1f       	adc	r25, r25
 516:	6a 95       	dec	r22
 518:	e2 f7       	brpl	.-8      	; 0x512 <DIO_voidSetPinDir+0xbe>
 51a:	80 95       	com	r24
 51c:	82 23       	and	r24, r18
 51e:	84 bb       	out	0x14, r24	; 20
 520:	08 95       	ret
 522:	21 b3       	in	r18, 0x11	; 17
 524:	81 e0       	ldi	r24, 0x01	; 1
 526:	90 e0       	ldi	r25, 0x00	; 0
 528:	02 c0       	rjmp	.+4      	; 0x52e <DIO_voidSetPinDir+0xda>
 52a:	88 0f       	add	r24, r24
 52c:	99 1f       	adc	r25, r25
 52e:	6a 95       	dec	r22
 530:	e2 f7       	brpl	.-8      	; 0x52a <DIO_voidSetPinDir+0xd6>
 532:	80 95       	com	r24
 534:	82 23       	and	r24, r18
 536:	81 bb       	out	0x11, r24	; 17
 538:	08 95       	ret

0000053a <DIO_voidSetPinVal>:
 53a:	42 30       	cpi	r20, 0x02	; 2
 53c:	08 f0       	brcs	.+2      	; 0x540 <DIO_voidSetPinVal+0x6>
 53e:	6f c0       	rjmp	.+222    	; 0x61e <DIO_voidSetPinVal+0xe4>
 540:	41 30       	cpi	r20, 0x01	; 1
 542:	a1 f5       	brne	.+104    	; 0x5ac <DIO_voidSetPinVal+0x72>
 544:	81 30       	cpi	r24, 0x01	; 1
 546:	89 f0       	breq	.+34     	; 0x56a <DIO_voidSetPinVal+0x30>
 548:	28 f0       	brcs	.+10     	; 0x554 <DIO_voidSetPinVal+0x1a>
 54a:	82 30       	cpi	r24, 0x02	; 2
 54c:	c9 f0       	breq	.+50     	; 0x580 <DIO_voidSetPinVal+0x46>
 54e:	83 30       	cpi	r24, 0x03	; 3
 550:	11 f1       	breq	.+68     	; 0x596 <DIO_voidSetPinVal+0x5c>
 552:	08 95       	ret
 554:	2b b3       	in	r18, 0x1b	; 27
 556:	81 e0       	ldi	r24, 0x01	; 1
 558:	90 e0       	ldi	r25, 0x00	; 0
 55a:	02 c0       	rjmp	.+4      	; 0x560 <DIO_voidSetPinVal+0x26>
 55c:	88 0f       	add	r24, r24
 55e:	99 1f       	adc	r25, r25
 560:	6a 95       	dec	r22
 562:	e2 f7       	brpl	.-8      	; 0x55c <DIO_voidSetPinVal+0x22>
 564:	82 2b       	or	r24, r18
 566:	8b bb       	out	0x1b, r24	; 27
 568:	08 95       	ret
 56a:	28 b3       	in	r18, 0x18	; 24
 56c:	81 e0       	ldi	r24, 0x01	; 1
 56e:	90 e0       	ldi	r25, 0x00	; 0
 570:	02 c0       	rjmp	.+4      	; 0x576 <DIO_voidSetPinVal+0x3c>
 572:	88 0f       	add	r24, r24
 574:	99 1f       	adc	r25, r25
 576:	6a 95       	dec	r22
 578:	e2 f7       	brpl	.-8      	; 0x572 <DIO_voidSetPinVal+0x38>
 57a:	82 2b       	or	r24, r18
 57c:	88 bb       	out	0x18, r24	; 24
 57e:	08 95       	ret
 580:	25 b3       	in	r18, 0x15	; 21
 582:	81 e0       	ldi	r24, 0x01	; 1
 584:	90 e0       	ldi	r25, 0x00	; 0
 586:	02 c0       	rjmp	.+4      	; 0x58c <DIO_voidSetPinVal+0x52>
 588:	88 0f       	add	r24, r24
 58a:	99 1f       	adc	r25, r25
 58c:	6a 95       	dec	r22
 58e:	e2 f7       	brpl	.-8      	; 0x588 <DIO_voidSetPinVal+0x4e>
 590:	82 2b       	or	r24, r18
 592:	85 bb       	out	0x15, r24	; 21
 594:	08 95       	ret
 596:	22 b3       	in	r18, 0x12	; 18
 598:	81 e0       	ldi	r24, 0x01	; 1
 59a:	90 e0       	ldi	r25, 0x00	; 0
 59c:	02 c0       	rjmp	.+4      	; 0x5a2 <DIO_voidSetPinVal+0x68>
 59e:	88 0f       	add	r24, r24
 5a0:	99 1f       	adc	r25, r25
 5a2:	6a 95       	dec	r22
 5a4:	e2 f7       	brpl	.-8      	; 0x59e <DIO_voidSetPinVal+0x64>
 5a6:	82 2b       	or	r24, r18
 5a8:	82 bb       	out	0x12, r24	; 18
 5aa:	08 95       	ret
 5ac:	41 11       	cpse	r20, r1
 5ae:	37 c0       	rjmp	.+110    	; 0x61e <DIO_voidSetPinVal+0xe4>
 5b0:	81 30       	cpi	r24, 0x01	; 1
 5b2:	91 f0       	breq	.+36     	; 0x5d8 <DIO_voidSetPinVal+0x9e>
 5b4:	28 f0       	brcs	.+10     	; 0x5c0 <DIO_voidSetPinVal+0x86>
 5b6:	82 30       	cpi	r24, 0x02	; 2
 5b8:	d9 f0       	breq	.+54     	; 0x5f0 <DIO_voidSetPinVal+0xb6>
 5ba:	83 30       	cpi	r24, 0x03	; 3
 5bc:	29 f1       	breq	.+74     	; 0x608 <DIO_voidSetPinVal+0xce>
 5be:	08 95       	ret
 5c0:	2b b3       	in	r18, 0x1b	; 27
 5c2:	81 e0       	ldi	r24, 0x01	; 1
 5c4:	90 e0       	ldi	r25, 0x00	; 0
 5c6:	02 c0       	rjmp	.+4      	; 0x5cc <DIO_voidSetPinVal+0x92>
 5c8:	88 0f       	add	r24, r24
 5ca:	99 1f       	adc	r25, r25
 5cc:	6a 95       	dec	r22
 5ce:	e2 f7       	brpl	.-8      	; 0x5c8 <DIO_voidSetPinVal+0x8e>
 5d0:	80 95       	com	r24
 5d2:	82 23       	and	r24, r18
 5d4:	8b bb       	out	0x1b, r24	; 27
 5d6:	08 95       	ret
 5d8:	28 b3       	in	r18, 0x18	; 24
 5da:	81 e0       	ldi	r24, 0x01	; 1
 5dc:	90 e0       	ldi	r25, 0x00	; 0
 5de:	02 c0       	rjmp	.+4      	; 0x5e4 <DIO_voidSetPinVal+0xaa>
 5e0:	88 0f       	add	r24, r24
 5e2:	99 1f       	adc	r25, r25
 5e4:	6a 95       	dec	r22
 5e6:	e2 f7       	brpl	.-8      	; 0x5e0 <DIO_voidSetPinVal+0xa6>
 5e8:	80 95       	com	r24
 5ea:	82 23       	and	r24, r18
 5ec:	88 bb       	out	0x18, r24	; 24
 5ee:	08 95       	ret
 5f0:	25 b3       	in	r18, 0x15	; 21
 5f2:	81 e0       	ldi	r24, 0x01	; 1
 5f4:	90 e0       	ldi	r25, 0x00	; 0
 5f6:	02 c0       	rjmp	.+4      	; 0x5fc <DIO_voidSetPinVal+0xc2>
 5f8:	88 0f       	add	r24, r24
 5fa:	99 1f       	adc	r25, r25
 5fc:	6a 95       	dec	r22
 5fe:	e2 f7       	brpl	.-8      	; 0x5f8 <DIO_voidSetPinVal+0xbe>
 600:	80 95       	com	r24
 602:	82 23       	and	r24, r18
 604:	85 bb       	out	0x15, r24	; 21
 606:	08 95       	ret
 608:	22 b3       	in	r18, 0x12	; 18
 60a:	81 e0       	ldi	r24, 0x01	; 1
 60c:	90 e0       	ldi	r25, 0x00	; 0
 60e:	02 c0       	rjmp	.+4      	; 0x614 <DIO_voidSetPinVal+0xda>
 610:	88 0f       	add	r24, r24
 612:	99 1f       	adc	r25, r25
 614:	6a 95       	dec	r22
 616:	e2 f7       	brpl	.-8      	; 0x610 <DIO_voidSetPinVal+0xd6>
 618:	80 95       	com	r24
 61a:	82 23       	and	r24, r18
 61c:	82 bb       	out	0x12, r24	; 18
 61e:	08 95       	ret

00000620 <DIO_voidSetPortDir>:
 620:	81 30       	cpi	r24, 0x01	; 1
 622:	41 f0       	breq	.+16     	; 0x634 <DIO_voidSetPortDir+0x14>
 624:	28 f0       	brcs	.+10     	; 0x630 <DIO_voidSetPortDir+0x10>
 626:	82 30       	cpi	r24, 0x02	; 2
 628:	39 f0       	breq	.+14     	; 0x638 <DIO_voidSetPortDir+0x18>
 62a:	83 30       	cpi	r24, 0x03	; 3
 62c:	39 f0       	breq	.+14     	; 0x63c <DIO_voidSetPortDir+0x1c>
 62e:	08 95       	ret
 630:	6a bb       	out	0x1a, r22	; 26
 632:	08 95       	ret
 634:	67 bb       	out	0x17, r22	; 23
 636:	08 95       	ret
 638:	64 bb       	out	0x14, r22	; 20
 63a:	08 95       	ret
 63c:	61 bb       	out	0x11, r22	; 17
 63e:	08 95       	ret

00000640 <__vector_1>:
 640:	1f 92       	push	r1
 642:	0f 92       	push	r0
 644:	0f b6       	in	r0, 0x3f	; 63
 646:	0f 92       	push	r0
 648:	11 24       	eor	r1, r1
 64a:	2f 93       	push	r18
 64c:	3f 93       	push	r19
 64e:	4f 93       	push	r20
 650:	5f 93       	push	r21
 652:	6f 93       	push	r22
 654:	7f 93       	push	r23
 656:	8f 93       	push	r24
 658:	9f 93       	push	r25
 65a:	af 93       	push	r26
 65c:	bf 93       	push	r27
 65e:	ef 93       	push	r30
 660:	ff 93       	push	r31
 662:	e0 91 76 00 	lds	r30, 0x0076	; 0x800076 <INT_PTR>
 666:	f0 91 77 00 	lds	r31, 0x0077	; 0x800077 <INT_PTR+0x1>
 66a:	09 95       	icall
 66c:	ff 91       	pop	r31
 66e:	ef 91       	pop	r30
 670:	bf 91       	pop	r27
 672:	af 91       	pop	r26
 674:	9f 91       	pop	r25
 676:	8f 91       	pop	r24
 678:	7f 91       	pop	r23
 67a:	6f 91       	pop	r22
 67c:	5f 91       	pop	r21
 67e:	4f 91       	pop	r20
 680:	3f 91       	pop	r19
 682:	2f 91       	pop	r18
 684:	0f 90       	pop	r0
 686:	0f be       	out	0x3f, r0	; 63
 688:	0f 90       	pop	r0
 68a:	1f 90       	pop	r1
 68c:	18 95       	reti

0000068e <__vector_2>:
 68e:	1f 92       	push	r1
 690:	0f 92       	push	r0
 692:	0f b6       	in	r0, 0x3f	; 63
 694:	0f 92       	push	r0
 696:	11 24       	eor	r1, r1
 698:	2f 93       	push	r18
 69a:	3f 93       	push	r19
 69c:	4f 93       	push	r20
 69e:	5f 93       	push	r21
 6a0:	6f 93       	push	r22
 6a2:	7f 93       	push	r23
 6a4:	8f 93       	push	r24
 6a6:	9f 93       	push	r25
 6a8:	af 93       	push	r26
 6aa:	bf 93       	push	r27
 6ac:	ef 93       	push	r30
 6ae:	ff 93       	push	r31
 6b0:	e0 91 78 00 	lds	r30, 0x0078	; 0x800078 <INT_PTR+0x2>
 6b4:	f0 91 79 00 	lds	r31, 0x0079	; 0x800079 <INT_PTR+0x3>
 6b8:	09 95       	icall
 6ba:	ff 91       	pop	r31
 6bc:	ef 91       	pop	r30
 6be:	bf 91       	pop	r27
 6c0:	af 91       	pop	r26
 6c2:	9f 91       	pop	r25
 6c4:	8f 91       	pop	r24
 6c6:	7f 91       	pop	r23
 6c8:	6f 91       	pop	r22
 6ca:	5f 91       	pop	r21
 6cc:	4f 91       	pop	r20
 6ce:	3f 91       	pop	r19
 6d0:	2f 91       	pop	r18
 6d2:	0f 90       	pop	r0
 6d4:	0f be       	out	0x3f, r0	; 63
 6d6:	0f 90       	pop	r0
 6d8:	1f 90       	pop	r1
 6da:	18 95       	reti

000006dc <__vector_3>:
 6dc:	1f 92       	push	r1
 6de:	0f 92       	push	r0
 6e0:	0f b6       	in	r0, 0x3f	; 63
 6e2:	0f 92       	push	r0
 6e4:	11 24       	eor	r1, r1
 6e6:	2f 93       	push	r18
 6e8:	3f 93       	push	r19
 6ea:	4f 93       	push	r20
 6ec:	5f 93       	push	r21
 6ee:	6f 93       	push	r22
 6f0:	7f 93       	push	r23
 6f2:	8f 93       	push	r24
 6f4:	9f 93       	push	r25
 6f6:	af 93       	push	r26
 6f8:	bf 93       	push	r27
 6fa:	ef 93       	push	r30
 6fc:	ff 93       	push	r31
 6fe:	e0 91 7a 00 	lds	r30, 0x007A	; 0x80007a <INT_PTR+0x4>
 702:	f0 91 7b 00 	lds	r31, 0x007B	; 0x80007b <INT_PTR+0x5>
 706:	09 95       	icall
 708:	ff 91       	pop	r31
 70a:	ef 91       	pop	r30
 70c:	bf 91       	pop	r27
 70e:	af 91       	pop	r26
 710:	9f 91       	pop	r25
 712:	8f 91       	pop	r24
 714:	7f 91       	pop	r23
 716:	6f 91       	pop	r22
 718:	5f 91       	pop	r21
 71a:	4f 91       	pop	r20
 71c:	3f 91       	pop	r19
 71e:	2f 91       	pop	r18
 720:	0f 90       	pop	r0
 722:	0f be       	out	0x3f, r0	; 63
 724:	0f 90       	pop	r0
 726:	1f 90       	pop	r1
 728:	18 95       	reti

0000072a <__vector_11>:
 72a:	1f 92       	push	r1
 72c:	0f 92       	push	r0
 72e:	0f b6       	in	r0, 0x3f	; 63
 730:	0f 92       	push	r0
 732:	11 24       	eor	r1, r1
 734:	2f 93       	push	r18
 736:	3f 93       	push	r19
 738:	4f 93       	push	r20
 73a:	5f 93       	push	r21
 73c:	6f 93       	push	r22
 73e:	7f 93       	push	r23
 740:	8f 93       	push	r24
 742:	9f 93       	push	r25
 744:	af 93       	push	r26
 746:	bf 93       	push	r27
 748:	ef 93       	push	r30
 74a:	ff 93       	push	r31
 74c:	e0 91 7c 00 	lds	r30, 0x007C	; 0x80007c <TIM0_PTR>
 750:	f0 91 7d 00 	lds	r31, 0x007D	; 0x80007d <TIM0_PTR+0x1>
 754:	30 97       	sbiw	r30, 0x00	; 0
 756:	09 f0       	breq	.+2      	; 0x75a <__vector_11+0x30>
 758:	09 95       	icall
 75a:	ff 91       	pop	r31
 75c:	ef 91       	pop	r30
 75e:	bf 91       	pop	r27
 760:	af 91       	pop	r26
 762:	9f 91       	pop	r25
 764:	8f 91       	pop	r24
 766:	7f 91       	pop	r23
 768:	6f 91       	pop	r22
 76a:	5f 91       	pop	r21
 76c:	4f 91       	pop	r20
 76e:	3f 91       	pop	r19
 770:	2f 91       	pop	r18
 772:	0f 90       	pop	r0
 774:	0f be       	out	0x3f, r0	; 63
 776:	0f 90       	pop	r0
 778:	1f 90       	pop	r1
 77a:	18 95       	reti

0000077c <__vector_10>:
 77c:	1f 92       	push	r1
 77e:	0f 92       	push	r0
 780:	0f b6       	in	r0, 0x3f	; 63
 782:	0f 92       	push	r0
 784:	11 24       	eor	r1, r1
 786:	2f 93       	push	r18
 788:	3f 93       	push	r19
 78a:	4f 93       	push	r20
 78c:	5f 93       	push	r21
 78e:	6f 93       	push	r22
 790:	7f 93       	push	r23
 792:	8f 93       	push	r24
 794:	9f 93       	push	r25
 796:	af 93       	push	r26
 798:	bf 93       	push	r27
 79a:	ef 93       	push	r30
 79c:	ff 93       	push	r31
 79e:	e0 91 7e 00 	lds	r30, 0x007E	; 0x80007e <TIM0_PTR+0x2>
 7a2:	f0 91 7f 00 	lds	r31, 0x007F	; 0x80007f <TIM0_PTR+0x3>
 7a6:	30 97       	sbiw	r30, 0x00	; 0
 7a8:	09 f0       	breq	.+2      	; 0x7ac <__vector_10+0x30>
 7aa:	09 95       	icall
 7ac:	ff 91       	pop	r31
 7ae:	ef 91       	pop	r30
 7b0:	bf 91       	pop	r27
 7b2:	af 91       	pop	r26
 7b4:	9f 91       	pop	r25
 7b6:	8f 91       	pop	r24
 7b8:	7f 91       	pop	r23
 7ba:	6f 91       	pop	r22
 7bc:	5f 91       	pop	r21
 7be:	4f 91       	pop	r20
 7c0:	3f 91       	pop	r19
 7c2:	2f 91       	pop	r18
 7c4:	0f 90       	pop	r0
 7c6:	0f be       	out	0x3f, r0	; 63
 7c8:	0f 90       	pop	r0
 7ca:	1f 90       	pop	r1
 7cc:	18 95       	reti

000007ce <TIM1_voidStop>:
	
	
	*/
	
	
}
 7ce:	8e b5       	in	r24, 0x2e	; 46
 7d0:	8b 7f       	andi	r24, 0xFB	; 251
 7d2:	8e bd       	out	0x2e, r24	; 46
 7d4:	8e b5       	in	r24, 0x2e	; 46
 7d6:	8d 7f       	andi	r24, 0xFD	; 253
 7d8:	8e bd       	out	0x2e, r24	; 46
 7da:	8e b5       	in	r24, 0x2e	; 46
 7dc:	8e 7f       	andi	r24, 0xFE	; 254
 7de:	8e bd       	out	0x2e, r24	; 46
 7e0:	08 95       	ret

000007e2 <TIM1_voidReset>:
 7e2:	1f bc       	out	0x2f, r1	; 47
 7e4:	1e bc       	out	0x2e, r1	; 46
 7e6:	08 95       	ret

000007e8 <TIM1_voidICUDutyCycle>:
* Parameters   : f32 copy_u8duty_cycle
* Return value : void
*****************************************************************************/
void TIM1_voidICUDutyCycle(u16* copy_u16t1 , u16* copy_u16t2){
	
	TCCR1B_REG = 0b11000001; // Rising edge, no prescaler
 7e8:	21 ec       	ldi	r18, 0xC1	; 193
 7ea:	2e bd       	out	0x2e, r18	; 46
	while(GET_BIT(TIFR_REG,ICF1_) == 0);
 7ec:	08 b6       	in	r0, 0x38	; 56
 7ee:	05 fe       	sbrs	r0, 5
 7f0:	fd cf       	rjmp	.-6      	; 0x7ec <TIM1_voidICUDutyCycle+0x4>
	*copy_u16t1 = ICR1L_REG; /* Take value of capture register */
 7f2:	26 b5       	in	r18, 0x26	; 38
 7f4:	37 b5       	in	r19, 0x27	; 39
 7f6:	fc 01       	movw	r30, r24
 7f8:	31 83       	std	Z+1, r19	; 0x01
 7fa:	20 83       	st	Z, r18
	SET_BIT(TIFR_REG,ICR1L_REG); /* Clear ICF (Input Capture flag)  */
 7fc:	26 b5       	in	r18, 0x26	; 38
 7fe:	37 b5       	in	r19, 0x27	; 39
 800:	81 e0       	ldi	r24, 0x01	; 1
 802:	90 e0       	ldi	r25, 0x00	; 0
 804:	02 c0       	rjmp	.+4      	; 0x80a <__DATA_REGION_LENGTH__+0xa>
 806:	88 0f       	add	r24, r24
 808:	99 1f       	adc	r25, r25
 80a:	2a 95       	dec	r18
 80c:	e2 f7       	brpl	.-8      	; 0x806 <__DATA_REGION_LENGTH__+0x6>
 80e:	98 b7       	in	r25, 0x38	; 56
 810:	89 2b       	or	r24, r25
 812:	88 bf       	out	0x38, r24	; 56
	TCCR1B_REG = 0b10000001; // Falling edge, no prescaler
 814:	81 e8       	ldi	r24, 0x81	; 129
 816:	8e bd       	out	0x2e, r24	; 46
	while(GET_BIT(TIFR_REG,ICF1_) == 0);
 818:	08 b6       	in	r0, 0x38	; 56
 81a:	05 fe       	sbrs	r0, 5
 81c:	fd cf       	rjmp	.-6      	; 0x818 <__DATA_REGION_LENGTH__+0x18>
	*copy_u16t2 = ICR1L_REG; /* Take value of capture register */
 81e:	86 b5       	in	r24, 0x26	; 38
 820:	97 b5       	in	r25, 0x27	; 39
 822:	fb 01       	movw	r30, r22
 824:	91 83       	std	Z+1, r25	; 0x01
 826:	80 83       	st	Z, r24
	SET_BIT(TIFR_REG,ICF1_); /* Clear ICF (Input Capture flag)  */
 828:	88 b7       	in	r24, 0x38	; 56
 82a:	80 62       	ori	r24, 0x20	; 32
 82c:	88 bf       	out	0x38, r24	; 56
 82e:	08 95       	ret

00000830 <__vector_5>:
 830:	1f 92       	push	r1
 832:	0f 92       	push	r0
 834:	0f b6       	in	r0, 0x3f	; 63
 836:	0f 92       	push	r0
 838:	11 24       	eor	r1, r1
 83a:	2f 93       	push	r18
 83c:	3f 93       	push	r19
 83e:	4f 93       	push	r20
 840:	5f 93       	push	r21
 842:	6f 93       	push	r22
 844:	7f 93       	push	r23
 846:	8f 93       	push	r24
 848:	9f 93       	push	r25
 84a:	af 93       	push	r26
 84c:	bf 93       	push	r27
 84e:	ef 93       	push	r30
 850:	ff 93       	push	r31
 852:	e0 91 80 00 	lds	r30, 0x0080	; 0x800080 <TIM2_PTR>
 856:	f0 91 81 00 	lds	r31, 0x0081	; 0x800081 <TIM2_PTR+0x1>
 85a:	30 97       	sbiw	r30, 0x00	; 0
 85c:	09 f0       	breq	.+2      	; 0x860 <__stack+0x1>
 85e:	09 95       	icall
 860:	ff 91       	pop	r31
 862:	ef 91       	pop	r30
 864:	bf 91       	pop	r27
 866:	af 91       	pop	r26
 868:	9f 91       	pop	r25
 86a:	8f 91       	pop	r24
 86c:	7f 91       	pop	r23
 86e:	6f 91       	pop	r22
 870:	5f 91       	pop	r21
 872:	4f 91       	pop	r20
 874:	3f 91       	pop	r19
 876:	2f 91       	pop	r18
 878:	0f 90       	pop	r0
 87a:	0f be       	out	0x3f, r0	; 63
 87c:	0f 90       	pop	r0
 87e:	1f 90       	pop	r1
 880:	18 95       	reti

00000882 <__vector_4>:
 882:	1f 92       	push	r1
 884:	0f 92       	push	r0
 886:	0f b6       	in	r0, 0x3f	; 63
 888:	0f 92       	push	r0
 88a:	11 24       	eor	r1, r1
 88c:	2f 93       	push	r18
 88e:	3f 93       	push	r19
 890:	4f 93       	push	r20
 892:	5f 93       	push	r21
 894:	6f 93       	push	r22
 896:	7f 93       	push	r23
 898:	8f 93       	push	r24
 89a:	9f 93       	push	r25
 89c:	af 93       	push	r26
 89e:	bf 93       	push	r27
 8a0:	ef 93       	push	r30
 8a2:	ff 93       	push	r31
 8a4:	e0 91 82 00 	lds	r30, 0x0082	; 0x800082 <TIM2_PTR+0x2>
 8a8:	f0 91 83 00 	lds	r31, 0x0083	; 0x800083 <TIM2_PTR+0x3>
 8ac:	30 97       	sbiw	r30, 0x00	; 0
 8ae:	09 f0       	breq	.+2      	; 0x8b2 <__vector_4+0x30>
 8b0:	09 95       	icall
 8b2:	ff 91       	pop	r31
 8b4:	ef 91       	pop	r30
 8b6:	bf 91       	pop	r27
 8b8:	af 91       	pop	r26
 8ba:	9f 91       	pop	r25
 8bc:	8f 91       	pop	r24
 8be:	7f 91       	pop	r23
 8c0:	6f 91       	pop	r22
 8c2:	5f 91       	pop	r21
 8c4:	4f 91       	pop	r20
 8c6:	3f 91       	pop	r19
 8c8:	2f 91       	pop	r18
 8ca:	0f 90       	pop	r0
 8cc:	0f be       	out	0x3f, r0	; 63
 8ce:	0f 90       	pop	r0
 8d0:	1f 90       	pop	r1
 8d2:	18 95       	reti

000008d4 <__udivmodsi4>:
 8d4:	a1 e2       	ldi	r26, 0x21	; 33
 8d6:	1a 2e       	mov	r1, r26
 8d8:	aa 1b       	sub	r26, r26
 8da:	bb 1b       	sub	r27, r27
 8dc:	fd 01       	movw	r30, r26
 8de:	0d c0       	rjmp	.+26     	; 0x8fa <__udivmodsi4_ep>

000008e0 <__udivmodsi4_loop>:
 8e0:	aa 1f       	adc	r26, r26
 8e2:	bb 1f       	adc	r27, r27
 8e4:	ee 1f       	adc	r30, r30
 8e6:	ff 1f       	adc	r31, r31
 8e8:	a2 17       	cp	r26, r18
 8ea:	b3 07       	cpc	r27, r19
 8ec:	e4 07       	cpc	r30, r20
 8ee:	f5 07       	cpc	r31, r21
 8f0:	20 f0       	brcs	.+8      	; 0x8fa <__udivmodsi4_ep>
 8f2:	a2 1b       	sub	r26, r18
 8f4:	b3 0b       	sbc	r27, r19
 8f6:	e4 0b       	sbc	r30, r20
 8f8:	f5 0b       	sbc	r31, r21

000008fa <__udivmodsi4_ep>:
 8fa:	66 1f       	adc	r22, r22
 8fc:	77 1f       	adc	r23, r23
 8fe:	88 1f       	adc	r24, r24
 900:	99 1f       	adc	r25, r25
 902:	1a 94       	dec	r1
 904:	69 f7       	brne	.-38     	; 0x8e0 <__udivmodsi4_loop>
 906:	60 95       	com	r22
 908:	70 95       	com	r23
 90a:	80 95       	com	r24
 90c:	90 95       	com	r25
 90e:	9b 01       	movw	r18, r22
 910:	ac 01       	movw	r20, r24
 912:	bd 01       	movw	r22, r26
 914:	cf 01       	movw	r24, r30
 916:	08 95       	ret

00000918 <__umulhisi3>:
 918:	a2 9f       	mul	r26, r18
 91a:	b0 01       	movw	r22, r0
 91c:	b3 9f       	mul	r27, r19
 91e:	c0 01       	movw	r24, r0
 920:	a3 9f       	mul	r26, r19
 922:	70 0d       	add	r23, r0
 924:	81 1d       	adc	r24, r1
 926:	11 24       	eor	r1, r1
 928:	91 1d       	adc	r25, r1
 92a:	b2 9f       	mul	r27, r18
 92c:	70 0d       	add	r23, r0
 92e:	81 1d       	adc	r24, r1
 930:	11 24       	eor	r1, r1
 932:	91 1d       	adc	r25, r1
 934:	08 95       	ret

00000936 <_exit>:
 936:	f8 94       	cli

00000938 <__stop_program>:
 938:	ff cf       	rjmp	.-2      	; 0x938 <__stop_program>
